target datalayout = "e-m:e-p270:32:32-p271:32:32-p272:64:64-i64:64-i128:128-f80:128-n8:16:32:64-S128"
target triple = "x86_64-pc-linux-gnu"

%struct.e_in6_addr = type { [16 x i8] }

; Function Attrs: alwaysinline nounwind
define internal ptr @memset.inline(ptr %0, i32 %1, i64 %2) #5 {
  %4 = alloca ptr, align 8
  %5 = alloca i32, align 4
  %6 = alloca i64, align 8
  store ptr %0, ptr %4, align 8
  store i32 %1, ptr %5, align 4
  store i64 %2, ptr %6, align 8
  %7 = load ptr, ptr %4, align 8
  %8 = load i32, ptr %5, align 4
  %9 = load i64, ptr %6, align 8
  %10 = load ptr, ptr %4, align 8
  %11 = call i64 @llvm.objectsize.i64.p0(ptr %10, i1 false, i1 true, i1 true)
  %12 = call ptr @__memset_chk(ptr noundef %7, i32 noundef %8, i64 noundef %9, i64 noundef %11) #9
  ret ptr %12
}

; Function Attrs: null_pointer_is_valid sspstrong uwtable
define internal i32 @dissect_dhcpv6_s46_ipv6_prefix(ptr noundef %0, i32 noundef %1, i32 noundef %2, i32 noundef %3, ptr noundef %4) #0 {
  %6 = alloca ptr, align 8
  %7 = alloca i32, align 4
  %8 = alloca i32, align 4
  %9 = alloca i32, align 4
  %10 = alloca ptr, align 8
  %11 = alloca i32, align 4
  %12 = alloca %struct.e_in6_addr, align 1
  store ptr %0, ptr %6, align 8
  store i32 %1, ptr %7, align 4
  store i32 %2, ptr %8, align 4
  store i32 %3, ptr %9, align 4
  store ptr %4, ptr %10, align 8
  call void @llvm.lifetime.start.p0(i64 4, ptr %11) #9
  call void @llvm.lifetime.start.p0(i64 16, ptr %12) #9
  %13 = load i32, ptr %9, align 4
  %14 = add i32 %13, 7
  %15 = and i32 %14, 248
  %16 = ashr i32 %15, 3
  store i32 %16, ptr %11, align 4
  %17 = getelementptr inbounds nuw %struct.e_in6_addr, ptr %12, i32 0, i32 0
  %18 = getelementptr inbounds [16 x i8], ptr %17, i64 0, i64 0
  %19 = call ptr @memset.inline(ptr noundef %18, i32 noundef 0, i64 noundef 16) #9
  %20 = load i32, ptr %11, align 4
  %21 = icmp ne i32 %20, 0
  br i1 %21, label %22, label %30

22:                                               ; preds = %5
  %23 = load ptr, ptr %6, align 8
  %24 = getelementptr inbounds nuw %struct.e_in6_addr, ptr %12, i32 0, i32 0
  %25 = getelementptr inbounds [16 x i8], ptr %24, i64 0, i64 0
  %26 = load i32, ptr %8, align 4
  %27 = load i32, ptr %11, align 4
  %28 = sext i32 %27 to i64
  %29 = call ptr @tvb_memcpy(ptr noundef %23, ptr noundef %25, i32 noundef %26, i64 noundef %28)
  br label %30

30:                                               ; preds = %22, %5
  %31 = load ptr, ptr %10, align 8
  %32 = load i32, ptr %7, align 4
  %33 = load ptr, ptr %6, align 8
  %34 = load i32, ptr %8, align 4
  %35 = load i32, ptr %11, align 4
  %36 = call ptr @proto_tree_add_ipv6(ptr noundef %31, i32 noundef %32, ptr noundef %33, i32 noundef %34, i32 noundef %35, ptr noundef %12)
  %37 = load i32, ptr %11, align 4
  call void @llvm.lifetime.end.p0(i64 16, ptr %12) #9
  call void @llvm.lifetime.end.p0(i64 4, ptr %11) #9
  ret i32 %37
}