; Function Attrs: null_pointer_is_valid sspstrong uwtable
define internal fastcc range(i32 0, 17) i32 @dissect_dhcpv6_s46_ipv6_prefix(ptr noundef %0, i32 noundef %1, i32 noundef %2, i32 noundef range(i32 0, 129) %3, ptr noundef %4) unnamed_addr #0 {
  %6 = alloca %struct.e_in6_addr, align 1
  call void @llvm.lifetime.start.p0(i64 16, ptr nonnull %6) #7
  %7 = add nuw nsw i32 %3, 7
  %8 = lshr i32 %7, 3
  call void @llvm.memset.p0.i64(ptr noundef nonnull align 1 dereferenceable(16) %6, i8 noundef 0, i64 noundef 16, i1 noundef false) #7
  %.not = icmp eq i32 %3, 0
  br i1 %.not, label %12, label %9

9:                                                ; preds = %5
  %10 = zext nneg i32 %8 to i64
  %11 = call ptr @tvb_memcpy(ptr noundef %0, ptr noundef nonnull %6, i32 noundef %2, i64 noundef %10)
  br label %12

12:                                               ; preds = %9, %5
  %13 = call ptr @proto_tree_add_ipv6(ptr noundef %4, i32 noundef %1, ptr noundef %0, i32 noundef %2, i32 noundef %8, ptr noundef nonnull %6)
  call void @llvm.lifetime.end.p0(i64 16, ptr nonnull %6) #7
  ret i32 %8
}